target datalayout = "e-m:e-p270:32:32-p271:32:32-p272:64:64-i64:64-i128:128-f80:128-n8:16:32:64-S128"
target triple = "x86_64-pc-linux-gnu"

%struct.png_time_struct = type { i16, i8, i8, i8, i8, i8 }

@.str.42 = private unnamed_addr constant [38 x i8] c"Invalid time specified for tIME chunk\00", align 1

; Function Attrs: nounwind uwtable
define void @png_save_uint_16(ptr noundef %0, i32 noundef %1) #0 {
  %3 = alloca ptr, align 8
  %4 = alloca i32, align 4
  store ptr %0, ptr %3, align 8, !tbaa !3
  store i32 %1, ptr %4, align 4, !tbaa !8
  %5 = load i32, ptr %4, align 4, !tbaa !8
  %6 = lshr i32 %5, 8
  %7 = and i32 %6, 255
  %8 = trunc i32 %7 to i8
  %9 = load ptr, ptr %3, align 8, !tbaa !3
  %10 = getelementptr inbounds i8, ptr %9, i64 0
  store i8 %8, ptr %10, align 1, !tbaa !10
  %11 = load i32, ptr %4, align 4, !tbaa !8
  %12 = and i32 %11, 255
  %13 = trunc i32 %12 to i8
  %14 = load ptr, ptr %3, align 8, !tbaa !3
  %15 = getelementptr inbounds i8, ptr %14, i64 1
  store i8 %13, ptr %15, align 1, !tbaa !10
  ret void
}

; Function Attrs: nounwind uwtable
define void @png_write_tIME(ptr noalias noundef %0, ptr noundef %1) #0 {
  %3 = alloca ptr, align 8
  %4 = alloca ptr, align 8
  %5 = alloca [7 x i8], align 1
  %6 = alloca i32, align 4
  store ptr %0, ptr %3, align 8, !tbaa !11
  store ptr %1, ptr %4, align 8, !tbaa !145
  call void @llvm.lifetime.start.p0(i64 7, ptr %5) #7
  %7 = load ptr, ptr %4, align 8, !tbaa !145
  %8 = getelementptr inbounds nuw %struct.png_time_struct, ptr %7, i32 0, i32 1
  %9 = load i8, ptr %8, align 2, !tbaa !147
  %10 = zext i8 %9 to i32
  %11 = icmp sgt i32 %10, 12
  br i1 %11, label %42, label %12

12:                                               ; preds = %2
  %13 = load ptr, ptr %4, align 8, !tbaa !145
  %14 = getelementptr inbounds nuw %struct.png_time_struct, ptr %13, i32 0, i32 1
  %15 = load i8, ptr %14, align 2, !tbaa !147
  %16 = zext i8 %15 to i32
  %17 = icmp slt i32 %16, 1
  br i1 %17, label %42, label %18

18:                                               ; preds = %12
  %19 = load ptr, ptr %4, align 8, !tbaa !145
  %20 = getelementptr inbounds nuw %struct.png_time_struct, ptr %19, i32 0, i32 2
  %21 = load i8, ptr %20, align 1, !tbaa !149
  %22 = zext i8 %21 to i32
  %23 = icmp sgt i32 %22, 31
  br i1 %23, label %42, label %24

24:                                               ; preds = %18
  %25 = load ptr, ptr %4, align 8, !tbaa !145
  %26 = getelementptr inbounds nuw %struct.png_time_struct, ptr %25, i32 0, i32 2
  %27 = load i8, ptr %26, align 1, !tbaa !149
  %28 = zext i8 %27 to i32
  %29 = icmp slt i32 %28, 1
  br i1 %29, label %42, label %30

30:                                               ; preds = %24
  %31 = load ptr, ptr %4, align 8, !tbaa !145
  %32 = getelementptr inbounds nuw %struct.png_time_struct, ptr %31, i32 0, i32 3
  %33 = load i8, ptr %32, align 2, !tbaa !150
  %34 = zext i8 %33 to i32
  %35 = icmp sgt i32 %34, 23
  br i1 %35, label %42, label %36

36:                                               ; preds = %30
  %37 = load ptr, ptr %4, align 8, !tbaa !145
  %38 = getelementptr inbounds nuw %struct.png_time_struct, ptr %37, i32 0, i32 5
  %39 = load i8, ptr %38, align 2, !tbaa !151
  %40 = zext i8 %39 to i32
  %41 = icmp sgt i32 %40, 60
  br i1 %41, label %42, label %44

42:                                               ; preds = %36, %30, %24, %18, %12, %2
  %43 = load ptr, ptr %3, align 8, !tbaa !11
  call void @png_warning(ptr noundef %43, ptr noundef @.str.42)
  store i32 1, ptr %6, align 4
  br label %72

44:                                               ; preds = %36
  %45 = getelementptr inbounds [7 x i8], ptr %5, i64 0, i64 0
  %46 = load ptr, ptr %4, align 8, !tbaa !145
  %47 = getelementptr inbounds nuw %struct.png_time_struct, ptr %46, i32 0, i32 0
  %48 = load i16, ptr %47, align 2, !tbaa !152
  %49 = zext i16 %48 to i32
  call void @png_save_uint_16(ptr noundef %45, i32 noundef %49)
  %50 = load ptr, ptr %4, align 8, !tbaa !145
  %51 = getelementptr inbounds nuw %struct.png_time_struct, ptr %50, i32 0, i32 1
  %52 = load i8, ptr %51, align 2, !tbaa !147
  %53 = getelementptr inbounds [7 x i8], ptr %5, i64 0, i64 2
  store i8 %52, ptr %53, align 1, !tbaa !10
  %54 = load ptr, ptr %4, align 8, !tbaa !145
  %55 = getelementptr inbounds nuw %struct.png_time_struct, ptr %54, i32 0, i32 2
  %56 = load i8, ptr %55, align 1, !tbaa !149
  %57 = getelementptr inbounds [7 x i8], ptr %5, i64 0, i64 3
  store i8 %56, ptr %57, align 1, !tbaa !10
  %58 = load ptr, ptr %4, align 8, !tbaa !145
  %59 = getelementptr inbounds nuw %struct.png_time_struct, ptr %58, i32 0, i32 3
  %60 = load i8, ptr %59, align 2, !tbaa !150
  %61 = getelementptr inbounds [7 x i8], ptr %5, i64 0, i64 4
  store i8 %60, ptr %61, align 1, !tbaa !10
  %62 = load ptr, ptr %4, align 8, !tbaa !145
  %63 = getelementptr inbounds nuw %struct.png_time_struct, ptr %62, i32 0, i32 4
  %64 = load i8, ptr %63, align 1, !tbaa !153
  %65 = getelementptr inbounds [7 x i8], ptr %5, i64 0, i64 5
  store i8 %64, ptr %65, align 1, !tbaa !10
  %66 = load ptr, ptr %4, align 8, !tbaa !145
  %67 = getelementptr inbounds nuw %struct.png_time_struct, ptr %66, i32 0, i32 5
  %68 = load i8, ptr %67, align 2, !tbaa !151
  %69 = getelementptr inbounds [7 x i8], ptr %5, i64 0, i64 6
  store i8 %68, ptr %69, align 1, !tbaa !10
  %70 = load ptr, ptr %3, align 8, !tbaa !11
  %71 = getelementptr inbounds [7 x i8], ptr %5, i64 0, i64 0
  call void @png_write_complete_chunk(ptr noundef %70, i32 noundef 1950960965, ptr noundef %71, i64 noundef 7)
  store i32 0, ptr %6, align 4
  br label %72

72:                                               ; preds = %44, %42
  call void @llvm.lifetime.end.p0(i64 7, ptr %5) #7
  %73 = load i32, ptr %6, align 4
  switch i32 %73, label %75 [
    i32 0, label %74
    i32 1, label %74
  ]

74:                                               ; preds = %72, %72
  ret void

75:                                               ; preds = %72
  unreachable
}