; Function Attrs: nounwind uwtable
define void @png_write_tIME(ptr noalias noundef %0, ptr noundef readonly captures(none) %1) local_unnamed_addr #1 {
  %3 = alloca [7 x i8], align 1
  call void @llvm.lifetime.start.p0(i64 7, ptr nonnull %3) #12
  %4 = getelementptr inbounds nuw i8, ptr %1, i64 2
  %5 = load i8, ptr %4, align 2, !tbaa !236
  %6 = add i8 %5, -13
  %or.cond = icmp ult i8 %6, -12
  br i1 %or.cond, label %19, label %7

7:                                                ; preds = %2
  %8 = getelementptr inbounds nuw i8, ptr %1, i64 3
  %9 = load i8, ptr %8, align 1, !tbaa !238
  %10 = add i8 %9, -32
  %or.cond15 = icmp ult i8 %10, -31
  br i1 %or.cond15, label %19, label %11

11:                                               ; preds = %7
  %12 = getelementptr inbounds nuw i8, ptr %1, i64 4
  %13 = load i8, ptr %12, align 2, !tbaa !239
  %14 = icmp ugt i8 %13, 23
  br i1 %14, label %19, label %15

15:                                               ; preds = %11
  %16 = getelementptr inbounds nuw i8, ptr %1, i64 6
  %17 = load i8, ptr %16, align 2, !tbaa !240
  %18 = icmp ugt i8 %17, 60
  br i1 %18, label %19, label %20

19:                                               ; preds = %15, %11, %7, %2
  tail call void @png_warning(ptr noundef %0, ptr noundef nonnull @.str.42) #12
  br label %33

20:                                               ; preds = %15
  %21 = load i16, ptr %1, align 2, !tbaa !241
  %22 = lshr i16 %21, 8
  %23 = trunc nuw i16 %22 to i8
  store i8 %23, ptr %3, align 1, !tbaa !3
  %24 = trunc i16 %21 to i8
  %25 = getelementptr inbounds nuw i8, ptr %3, i64 1
  store i8 %24, ptr %25, align 1, !tbaa !3
  %26 = getelementptr inbounds nuw i8, ptr %3, i64 2
  store i8 %5, ptr %26, align 1, !tbaa !3
  %27 = getelementptr inbounds nuw i8, ptr %3, i64 3
  store i8 %9, ptr %27, align 1, !tbaa !3
  %28 = getelementptr inbounds nuw i8, ptr %3, i64 4
  store i8 %13, ptr %28, align 1, !tbaa !3
  %29 = getelementptr inbounds nuw i8, ptr %1, i64 5
  %30 = load i8, ptr %29, align 1, !tbaa !242
  %31 = getelementptr inbounds nuw i8, ptr %3, i64 5
  store i8 %30, ptr %31, align 1, !tbaa !3
  %32 = getelementptr inbounds nuw i8, ptr %3, i64 6
  store i8 %17, ptr %32, align 1, !tbaa !3
  call fastcc void @png_write_complete_chunk(ptr noundef %0, i32 noundef 1950960965, ptr noundef nonnull %3, i64 noundef 7)
  br label %33

33:                                               ; preds = %20, %19
  call void @llvm.lifetime.end.p0(i64 7, ptr nonnull %3) #12
  ret void
}